(dp1
S'Imperial Stout'
p2
I26
sS'Racer 5 India Pale Ale'
p3
I44
sS'90 Minute IPA'
p4
I1
sS'Chimay Grande R\xc3\xa9serve (Blue)'
p5
I9
sS'La Fin Du Monde'
p6
I28
sS'Alpha King Pale Ale'
p7
I2
sS'Shakespeare Oatmeal Stout'
p8
I51
sS'Maudite'
p9
I30
sS'Trappistes Rochefort 8'
p10
I64
sS'Founders Breakfast Stout'
p11
I15
sS'Christmas Ale'
p12
I11
sS'Stone Imperial Russian Stout'
p13
I57
sS'Schneider Aventinus'
p14
I50
sS'Pale Ale'
p15
I38
sS'Imperial IPA'
p16
I25
sS'Anchor Steam Beer'
p17
I3
sS'Hop Rod Rye'
p18
I21
sS'Ten FIDY'
p19
I62
sS'Samuel Adams Boston Lager'
p20
I47
sS'Old Rasputin Russian Imperial Stout'
p21
I37
sS'Stone Sublimely Self-Righteous Ale'
p22
I60
sS'P\xc3\xa9ch\xc3\xa9 Mortel (Imperial Stout Au Cafe)'
p23
I43
sS'Hercules Double IPA'
p24
I20
sS'Arrogant Bastard Ale'
p25
I4
sS'Brooklyn Black Chocolate Stout'
p26
I8
sS'Two Hearted Ale'
p27
I67
sS'60 Minute IPA'
p28
I0
sS"Bell's Expedition Stout"
p29
I6
sS'Fat Tire Amber Ale'
p30
I14
sS'Ayinger Celebrator Doppelbock'
p31
I5
sS'Trois Pistoles'
p32
I65
sS'Guinness Draught'
p33
I16
sS'Double Bastard Ale'
p34
I12
sS"Young's Double Chocolate Stout"
p35
I69
sS'Duvel'
p36
I13
sS'Harvest Ale'
p37
I17
sS'Oktoberfest'
p38
I36
sS'Oatmeal Stout'
p39
I35
sS'Weihenstephaner Hefeweissbier'
p40
I68
sS'St. Bernardus Abt 12'
p41
I55
sS'Nut Brown Ale'
p42
I32
sS'Sierra Nevada Bigfoot Barleywine Style Ale'
p43
I52
sS'Storm King Stout'
p44
I61
sS'Oak Aged Yeti Imperial Stout'
p45
I33
sS'Prima Pils'
p46
I41
sS'Sierra Nevada Celebration Ale'
p47
I53
sS'Northern Hemisphere Harvest Wet Hop Ale'
p48
I31
sS'Stone Ruination IPA'
p49
I58
sS'Chocolate Stout'
p50
I10
sS'Sierra Nevada Pale Ale'
p51
I54
sS'Saison'
p52
I45
sS'Stone Smoked Porter'
p53
I59
sS'Hefeweizen'
p54
I18
sS'HopDevil Ale'
p55
I23
sS'Hennepin (Farmhouse Saison)'
p56
I19
sS'Pliny The Elder'
p57
I39
sS'IPA'
p58
I24
sS'India Pale Ale'
p59
I27
sS'Trappistes Rochefort 10'
p60
I63
sS'Samuel Adams Winter Lager'
p61
I49
sS'Samuel Adams Octoberfest'
p62
I48
sS'Hop Wallop'
p63
I22
sS"Bell's Hopslam Ale"
p64
I7
sS'Maharaja'
p65
I29
sS'Tr\xc3\xb6egs Nugget Nectar'
p66
I66
sS'Stone IPA (India Pale Ale)'
p67
I56
sS'Oaked Arrogant Bastard Ale'
p68
I34
sS'Porter'
p69
I40
sS'Pumpkin Ale'
p70
I42
sS'Salvation'
p71
I46
s.(dp1
S'aracauna'
p2
I121
sS'RblWthACoz'
p3
I86
sS'bluejacket74'
p4
I138
sS'corby112'
p5
I151
sS'magictrokini'
p6
I192
sS'woosterbill'
p7
I248
sS'avalon07'
p8
I125
sS'Gavage'
p9
I40
sS'Deuane'
p10
I28
sS'alexgash'
p11
I117
sS'Hojaminbag'
p12
I51
sS'lackenhauser'
p13
I187
sS'RBorsato'
p14
I84
sS'twiggamortis420'
p15
I242
sS'tigg924'
p16
I239
sS'morimech'
p17
I201
sS'Absumaster'
p18
I1
sS'TheManiacalOne'
p19
I100
sS'blitheringidiot'
p20
I137
sS'Bierman9'
p21
I11
sS'alleykatking'
p22
I120
sS'wagenvolks'
p23
I243
sS'BeerSox'
p24
I8
sS'dirtylou'
p25
I155
sS'rye726'
p26
I223
sS'Haybeerman'
p27
I50
sS'DrJay'
p28
I32
sS'woodychandler'
p29
I247
sS'Slatetank'
p30
I94
sS'Pegasus'
p31
I80
sS'JoeyBeerBelly'
p32
I61
sS'drabmuh'
p33
I156
sS'drpimento'
p34
I157
sS'OWSLEY069'
p35
I77
sS'JohnGalt1'
p36
I62
sS'Halcyondays'
p37
I48
sS'sulldaddy'
p38
I231
sS'emerge077'
p39
I160
sS'Boto'
p40
I16
sS'johnmichaelsen'
p41
I176
sS'Jayli'
p42
I60
sS'thierrynantes'
p43
I238
sS'ccrida'
p44
I145
sS'billab914'
p45
I135
sS'Billolick'
p46
I13
sS'beerthulhu'
p47
I131
sS'Bierguy5'
p48
I10
sS'Viggo'
p49
I107
sS'granger10'
p50
I170
sS'BEERchitect'
p51
I5
sS'rfgetz'
p52
I220
sS'Vancer'
p53
I106
sS'clayrock81'
p54
I148
sS'Crosling'
p55
I24
sS'ktrillionaire'
p56
I185
sS'Bitterbill'
p57
I14
sS'BretSikkink'
p58
I19
sS'biboergosum'
p59
I133
sS'mcallister'
p60
I195
sS'spinrsx'
p61
I227
sS'dsa7783'
p62
I158
sS'bobsy'
p63
I139
sS'francisweizen'
p64
I166
sS'ImperialScott'
p65
I54
sS'Gusler'
p66
I47
sS'beerguy101'
p67
I130
sS'Brent'
p68
I18
sS'nickfl'
p69
I206
sS'Rifugium'
p70
I91
sS'TastyTaste'
p71
I98
sS'laituegonflable'
p72
I189
sS'Wasatch'
p73
I109
sS'jpm30'
p74
I177
sS'crossovert'
p75
I153
sS'Gueuzedude'
p76
I46
sS'Phyl21ca'
p77
I83
sS'sholland119'
p78
I225
sS'Beerandraiderfan'
p79
I9
sS'Derek'
p80
I27
sS'bark'
p81
I126
sS'GCBrewingCo'
p82
I38
sS'GratefulBeerGuy'
p83
I45
sS'GbVDave'
p84
I41
sS'tavernjef'
p85
I233
sS'BeerAdvocate'
p86
I6
sS'cpetrone84'
p87
I152
sS'Durge'
p88
I34
sS'Pencible'
p89
I81
sS'Kegatron'
p90
I65
sS'kbutler1'
p91
I181
sS'Floydster'
p92
I35
sS'AgentZero'
p93
I2
sS'Rayek'
p94
I85
sS'Brad007'
p95
I17
sS'rastaman'
p96
I219
sS'TheLongBeachBum'
p97
I99
sS'Gmann'
p98
I44
sS'illidurit'
p99
I173
sS'HopHead84'
p100
I52
sS'hopdog'
p101
I172
sS'tgbljb'
p102
I235
sS'RedDiamond'
p103
I88
sS'Cyberkedi'
p104
I25
sS'womencantsail'
p105
I246
sS'lordofthewiens'
p106
I191
sS'blackie'
p107
I136
sS'metter98'
p108
I199
sS'DogFood11'
p109
I29
sS'IronDjinn'
p110
I56
sS'emmasdad'
p111
I161
sS'dgilks'
p112
I154
sS'feloniousmonk'
p113
I163
sS'largadeer'
p114
I190
sS'glid02'
p115
I169
sS'BlackHaddock'
p116
I15
sS'Mebuzzard'
p117
I70
sS'cjgator3'
p118
I147
sS'mynie'
p119
I204
sS'stakem'
p120
I229
sS'argock'
p121
I122
sS'Jason'
p122
I59
sS'ppoitras'
p123
I216
sS'UncleJimbo'
p124
I104
sS'ChainGangGuy'
p125
I21
sS'dyan'
p126
I159
sS'ZAP'
p127
I111
sS'northyorksammy'
p128
I207
sS'far333'
p129
I162
sS'brewdlyhooked13'
p130
I143
sS'smcolw'
p131
I226
sS'Thorpe429'
p132
I101
sS'Stinkypuss'
p133
I95
sS'flexabull'
p134
I165
sS'nickd717'
p135
I205
sS'RonfromJersey'
p136
I92
sS'RoyalT'
p137
I93
sS'oberon'
p138
I209
sS'weeare138'
p139
I244
sS'Jwale73'
p140
I63
sS'NeroFiddled'
p141
I76
sS'Dogbrick'
p142
I30
sS'wl0307'
p143
I245
sS'russpowell'
p144
I222
sS'yemenmocha'
p145
I250
sS'champ103'
p146
I146
sS'Drew966'
p147
I33
sS'srandycarter'
p148
I228
sS'FosterJM'
p149
I36
sS'Redrover'
p150
I89
sS'cokes'
p151
I150
sS'grub'
p152
I171
sS'BeerFMAndy'
p153
I7
sS'mentor'
p154
I197
sS'GClarkage'
p155
I39
sS'tpd975'
p156
I241
sS'brdc'
p157
I140
sS'thekevlarkid'
p158
I237
sS'mdfb79'
p159
I196
sS'WVbeergeek'
p160
I108
sS'jwinship83'
p161
I180
sS'Metalmonk'
p162
I71
sS'kojevergas'
p163
I184
sS'rhoadsrage'
p164
I221
sS'ADR'
p165
I0
sS'clvand0'
p166
I149
sS'UnionMade'
p167
I105
sS'Reidrover'
p168
I90
sS'Globetrotter'
p169
I43
sS'jwc215'
p170
I179
sS'adamette'
p171
I113
sS'bashiba'
p172
I128
sS'tone77'
p173
I240
sS'albern'
p174
I116
sS'armock'
p175
I123
sS'prototypic'
p176
I217
sS'jlindros'
p177
I175
sS'TurdFurgison'
p178
I103
sS'DoubleJ'
p179
I31
sS'TMoney2591'
p180
I97
sS'Tone'
p181
I102
sS'Huhzubendah'
p182
I53
sS'allengarvin'
p183
I118
sS'paterlodie'
p184
I212
sS'MasterSki'
p185
I68
sS'Offa'
p186
I78
sS'onix1agr'
p187
I210
sS'Reagan1984'
p188
I87
sS'wordemupg'
p189
I249
sS'canucklehead'
p190
I144
sS'kwjd'
p191
I186
sS'Zorro'
p192
I112
sS'mikesgroove'
p193
I200
sS'NEhophead'
p194
I74
sS'DIM'
p195
I26
sS'Overlord'
p196
I79
sS'kmpitz2'
p197
I183
sS'jdhilt'
p198
I174
sS'ffejherb'
p199
I164
sS'Arbitrator'
p200
I3
sS'maximum12'
p201
I194
sS'CrellMoset'
p202
I23
sS'scruffwhor'
p203
I224
sS'brentk56'
p204
I141
sS'KarlHungus'
p205
I64
sS'brewandbbq'
p206
I142
sS'garymuchow'
p207
I167
sS'JDV'
p208
I57
sS'aerozeppl'
p209
I114
sS'Knapp85'
p210
I66
sS'mothman'
p211
I202
sS'ArrogantB'
p212
I4
sS'gford217'
p213
I168
sS'msubulldog25'
p214
I203
sS'LilBeerDoctor'
p215
I67
sS'tempest'
p216
I234
sS'IntriqKen'
p217
I55
sS'JamesS'
p218
I58
sS'stcules'
p219
I230
sS'jrallen34'
p220
I178
sS'beertunes'
p221
I132
sS'lacqueredmouse'
p222
I188
sS'pootz'
p223
I215
sS'HardTarget'
p224
I49
sS'NJpadreFan'
p225
I75
sS'MbpBugeye'
p226
I69
sS'Georgiabeer'
p227
I42
sS'allergictomacros'
p228
I119
sS'ClockworkOrange'
p229
I22
sS'thagr81us'
p230
I236
sS'merlin48'
p231
I198
sS'pmcadamis'
p232
I214
sS'barleywinefiend'
p233
I127
sS'biegaman'
p234
I134
sS'Phatz'
p235
I82
sS'kingcrowing'
p236
I182
sS'zeff80'
p237
I251
sS'atsprings'
p238
I124
sS'Frozensoul327'
p239
I37
sS'orbitalr0x'
p240
I211
sS'rarbring'
p241
I218
sS'sweemzander'
p242
I232
sS'Bighuge'
p243
I12
sS'akorsak'
p244
I115
sS'marc77'
p245
I193
sS'Mora2000'
p246
I73
sS'nrbw23'
p247
I208
sS'bditty187'
p248
I129
sS'BuckeyeNation'
p249
I20
sS'Suds'
p250
I96
sS'WesWes'
p251
I110
sS'Mitchster'
p252
I72
sS'plaid75'
p253
I213
s.(dp1
I0
S'60 Minute IPA'
p2
sI1
S'90 Minute IPA'
p3
sI2
S'Alpha King Pale Ale'
p4
sI3
S'Anchor Steam Beer'
p5
sI4
S'Arrogant Bastard Ale'
p6
sI5
S'Ayinger Celebrator Doppelbock'
p7
sI6
S"Bell's Expedition Stout"
p8
sI7
S"Bell's Hopslam Ale"
p9
sI8
S'Brooklyn Black Chocolate Stout'
p10
sI9
S'Chimay Grande R\xc3\xa9serve (Blue)'
p11
sI10
S'Chocolate Stout'
p12
sI11
S'Christmas Ale'
p13
sI12
S'Double Bastard Ale'
p14
sI13
S'Duvel'
p15
sI14
S'Fat Tire Amber Ale'
p16
sI15
S'Founders Breakfast Stout'
p17
sI16
S'Guinness Draught'
p18
sI17
S'Harvest Ale'
p19
sI18
S'Hefeweizen'
p20
sI19
S'Hennepin (Farmhouse Saison)'
p21
sI20
S'Hercules Double IPA'
p22
sI21
S'Hop Rod Rye'
p23
sI22
S'Hop Wallop'
p24
sI23
S'HopDevil Ale'
p25
sI24
S'IPA'
p26
sI25
S'Imperial IPA'
p27
sI26
S'Imperial Stout'
p28
sI27
S'India Pale Ale'
p29
sI28
S'La Fin Du Monde'
p30
sI29
S'Maharaja'
p31
sI30
S'Maudite'
p32
sI31
S'Northern Hemisphere Harvest Wet Hop Ale'
p33
sI32
S'Nut Brown Ale'
p34
sI33
S'Oak Aged Yeti Imperial Stout'
p35
sI34
S'Oaked Arrogant Bastard Ale'
p36
sI35
S'Oatmeal Stout'
p37
sI36
S'Oktoberfest'
p38
sI37
S'Old Rasputin Russian Imperial Stout'
p39
sI38
S'Pale Ale'
p40
sI39
S'Pliny The Elder'
p41
sI40
S'Porter'
p42
sI41
S'Prima Pils'
p43
sI42
S'Pumpkin Ale'
p44
sI43
S'P\xc3\xa9ch\xc3\xa9 Mortel (Imperial Stout Au Cafe)'
p45
sI44
S'Racer 5 India Pale Ale'
p46
sI45
S'Saison'
p47
sI46
S'Salvation'
p48
sI47
S'Samuel Adams Boston Lager'
p49
sI48
S'Samuel Adams Octoberfest'
p50
sI49
S'Samuel Adams Winter Lager'
p51
sI50
S'Schneider Aventinus'
p52
sI51
S'Shakespeare Oatmeal Stout'
p53
sI52
S'Sierra Nevada Bigfoot Barleywine Style Ale'
p54
sI53
S'Sierra Nevada Celebration Ale'
p55
sI54
S'Sierra Nevada Pale Ale'
p56
sI55
S'St. Bernardus Abt 12'
p57
sI56
S'Stone IPA (India Pale Ale)'
p58
sI57
S'Stone Imperial Russian Stout'
p59
sI58
S'Stone Ruination IPA'
p60
sI59
S'Stone Smoked Porter'
p61
sI60
S'Stone Sublimely Self-Righteous Ale'
p62
sI61
S'Storm King Stout'
p63
sI62
S'Ten FIDY'
p64
sI63
S'Trappistes Rochefort 10'
p65
sI64
S'Trappistes Rochefort 8'
p66
sI65
S'Trois Pistoles'
p67
sI66
S'Tr\xc3\xb6egs Nugget Nectar'
p68
sI67
S'Two Hearted Ale'
p69
sI68
S'Weihenstephaner Hefeweissbier'
p70
sI69
S"Young's Double Chocolate Stout"
p71
s.(dp1
I0
S'ADR'
p2
sI1
S'Absumaster'
p3
sI2
S'AgentZero'
p4
sI3
S'Arbitrator'
p5
sI4
S'ArrogantB'
p6
sI5
S'BEERchitect'
p7
sI6
S'BeerAdvocate'
p8
sI7
S'BeerFMAndy'
p9
sI8
S'BeerSox'
p10
sI9
S'Beerandraiderfan'
p11
sI10
S'Bierguy5'
p12
sI11
S'Bierman9'
p13
sI12
S'Bighuge'
p14
sI13
S'Billolick'
p15
sI14
S'Bitterbill'
p16
sI15
S'BlackHaddock'
p17
sI16
S'Boto'
p18
sI17
S'Brad007'
p19
sI18
S'Brent'
p20
sI19
S'BretSikkink'
p21
sI20
S'BuckeyeNation'
p22
sI21
S'ChainGangGuy'
p23
sI22
S'ClockworkOrange'
p24
sI23
S'CrellMoset'
p25
sI24
S'Crosling'
p26
sI25
S'Cyberkedi'
p27
sI26
S'DIM'
p28
sI27
S'Derek'
p29
sI28
S'Deuane'
p30
sI29
S'DogFood11'
p31
sI30
S'Dogbrick'
p32
sI31
S'DoubleJ'
p33
sI32
S'DrJay'
p34
sI33
S'Drew966'
p35
sI34
S'Durge'
p36
sI35
S'Floydster'
p37
sI36
S'FosterJM'
p38
sI37
S'Frozensoul327'
p39
sI38
S'GCBrewingCo'
p40
sI39
S'GClarkage'
p41
sI40
S'Gavage'
p42
sI41
S'GbVDave'
p43
sI42
S'Georgiabeer'
p44
sI43
S'Globetrotter'
p45
sI44
S'Gmann'
p46
sI45
S'GratefulBeerGuy'
p47
sI46
S'Gueuzedude'
p48
sI47
S'Gusler'
p49
sI48
S'Halcyondays'
p50
sI49
S'HardTarget'
p51
sI50
S'Haybeerman'
p52
sI51
S'Hojaminbag'
p53
sI52
S'HopHead84'
p54
sI53
S'Huhzubendah'
p55
sI54
S'ImperialScott'
p56
sI55
S'IntriqKen'
p57
sI56
S'IronDjinn'
p58
sI57
S'JDV'
p59
sI58
S'JamesS'
p60
sI59
S'Jason'
p61
sI60
S'Jayli'
p62
sI61
S'JoeyBeerBelly'
p63
sI62
S'JohnGalt1'
p64
sI63
S'Jwale73'
p65
sI64
S'KarlHungus'
p66
sI65
S'Kegatron'
p67
sI66
S'Knapp85'
p68
sI67
S'LilBeerDoctor'
p69
sI68
S'MasterSki'
p70
sI69
S'MbpBugeye'
p71
sI70
S'Mebuzzard'
p72
sI71
S'Metalmonk'
p73
sI72
S'Mitchster'
p74
sI73
S'Mora2000'
p75
sI74
S'NEhophead'
p76
sI75
S'NJpadreFan'
p77
sI76
S'NeroFiddled'
p78
sI77
S'OWSLEY069'
p79
sI78
S'Offa'
p80
sI79
S'Overlord'
p81
sI80
S'Pegasus'
p82
sI81
S'Pencible'
p83
sI82
S'Phatz'
p84
sI83
S'Phyl21ca'
p85
sI84
S'RBorsato'
p86
sI85
S'Rayek'
p87
sI86
S'RblWthACoz'
p88
sI87
S'Reagan1984'
p89
sI88
S'RedDiamond'
p90
sI89
S'Redrover'
p91
sI90
S'Reidrover'
p92
sI91
S'Rifugium'
p93
sI92
S'RonfromJersey'
p94
sI93
S'RoyalT'
p95
sI94
S'Slatetank'
p96
sI95
S'Stinkypuss'
p97
sI96
S'Suds'
p98
sI97
S'TMoney2591'
p99
sI98
S'TastyTaste'
p100
sI99
S'TheLongBeachBum'
p101
sI100
S'TheManiacalOne'
p102
sI101
S'Thorpe429'
p103
sI102
S'Tone'
p104
sI103
S'TurdFurgison'
p105
sI104
S'UncleJimbo'
p106
sI105
S'UnionMade'
p107
sI106
S'Vancer'
p108
sI107
S'Viggo'
p109
sI108
S'WVbeergeek'
p110
sI109
S'Wasatch'
p111
sI110
S'WesWes'
p112
sI111
S'ZAP'
p113
sI112
S'Zorro'
p114
sI113
S'adamette'
p115
sI114
S'aerozeppl'
p116
sI115
S'akorsak'
p117
sI116
S'albern'
p118
sI117
S'alexgash'
p119
sI118
S'allengarvin'
p120
sI119
S'allergictomacros'
p121
sI120
S'alleykatking'
p122
sI121
S'aracauna'
p123
sI122
S'argock'
p124
sI123
S'armock'
p125
sI124
S'atsprings'
p126
sI125
S'avalon07'
p127
sI126
S'bark'
p128
sI127
S'barleywinefiend'
p129
sI128
S'bashiba'
p130
sI129
S'bditty187'
p131
sI130
S'beerguy101'
p132
sI131
S'beerthulhu'
p133
sI132
S'beertunes'
p134
sI133
S'biboergosum'
p135
sI134
S'biegaman'
p136
sI135
S'billab914'
p137
sI136
S'blackie'
p138
sI137
S'blitheringidiot'
p139
sI138
S'bluejacket74'
p140
sI139
S'bobsy'
p141
sI140
S'brdc'
p142
sI141
S'brentk56'
p143
sI142
S'brewandbbq'
p144
sI143
S'brewdlyhooked13'
p145
sI144
S'canucklehead'
p146
sI145
S'ccrida'
p147
sI146
S'champ103'
p148
sI147
S'cjgator3'
p149
sI148
S'clayrock81'
p150
sI149
S'clvand0'
p151
sI150
S'cokes'
p152
sI151
S'corby112'
p153
sI152
S'cpetrone84'
p154
sI153
S'crossovert'
p155
sI154
S'dgilks'
p156
sI155
S'dirtylou'
p157
sI156
S'drabmuh'
p158
sI157
S'drpimento'
p159
sI158
S'dsa7783'
p160
sI159
S'dyan'
p161
sI160
S'emerge077'
p162
sI161
S'emmasdad'
p163
sI162
S'far333'
p164
sI163
S'feloniousmonk'
p165
sI164
S'ffejherb'
p166
sI165
S'flexabull'
p167
sI166
S'francisweizen'
p168
sI167
S'garymuchow'
p169
sI168
S'gford217'
p170
sI169
S'glid02'
p171
sI170
S'granger10'
p172
sI171
S'grub'
p173
sI172
S'hopdog'
p174
sI173
S'illidurit'
p175
sI174
S'jdhilt'
p176
sI175
S'jlindros'
p177
sI176
S'johnmichaelsen'
p178
sI177
S'jpm30'
p179
sI178
S'jrallen34'
p180
sI179
S'jwc215'
p181
sI180
S'jwinship83'
p182
sI181
S'kbutler1'
p183
sI182
S'kingcrowing'
p184
sI183
S'kmpitz2'
p185
sI184
S'kojevergas'
p186
sI185
S'ktrillionaire'
p187
sI186
S'kwjd'
p188
sI187
S'lackenhauser'
p189
sI188
S'lacqueredmouse'
p190
sI189
S'laituegonflable'
p191
sI190
S'largadeer'
p192
sI191
S'lordofthewiens'
p193
sI192
S'magictrokini'
p194
sI193
S'marc77'
p195
sI194
S'maximum12'
p196
sI195
S'mcallister'
p197
sI196
S'mdfb79'
p198
sI197
S'mentor'
p199
sI198
S'merlin48'
p200
sI199
S'metter98'
p201
sI200
S'mikesgroove'
p202
sI201
S'morimech'
p203
sI202
S'mothman'
p204
sI203
S'msubulldog25'
p205
sI204
S'mynie'
p206
sI205
S'nickd717'
p207
sI206
S'nickfl'
p208
sI207
S'northyorksammy'
p209
sI208
S'nrbw23'
p210
sI209
S'oberon'
p211
sI210
S'onix1agr'
p212
sI211
S'orbitalr0x'
p213
sI212
S'paterlodie'
p214
sI213
S'plaid75'
p215
sI214
S'pmcadamis'
p216
sI215
S'pootz'
p217
sI216
S'ppoitras'
p218
sI217
S'prototypic'
p219
sI218
S'rarbring'
p220
sI219
S'rastaman'
p221
sI220
S'rfgetz'
p222
sI221
S'rhoadsrage'
p223
sI222
S'russpowell'
p224
sI223
S'rye726'
p225
sI224
S'scruffwhor'
p226
sI225
S'sholland119'
p227
sI226
S'smcolw'
p228
sI227
S'spinrsx'
p229
sI228
S'srandycarter'
p230
sI229
S'stakem'
p231
sI230
S'stcules'
p232
sI231
S'sulldaddy'
p233
sI232
S'sweemzander'
p234
sI233
S'tavernjef'
p235
sI234
S'tempest'
p236
sI235
S'tgbljb'
p237
sI236
S'thagr81us'
p238
sI237
S'thekevlarkid'
p239
sI238
S'thierrynantes'
p240
sI239
S'tigg924'
p241
sI240
S'tone77'
p242
sI241
S'tpd975'
p243
sI242
S'twiggamortis420'
p244
sI243
S'wagenvolks'
p245
sI244
S'weeare138'
p246
sI245
S'wl0307'
p247
sI246
S'womencantsail'
p248
sI247
S'woodychandler'
p249
sI248
S'woosterbill'
p250
sI249
S'wordemupg'
p251
sI250
S'yemenmocha'
p252
sI251
S'zeff80'
p253
s.